; Function Attrs: nofree nounwind memory(read, inaccessiblemem: none) uwtable
define hidden i32 @mbedtls_ssl_get_ciphersuite_id(ptr noundef readonly %0) local_unnamed_addr #2 {
  %2 = icmp eq ptr %0, null
  br i1 %2, label %mbedtls_ssl_ciphersuite_from_string.exit.thread, label %.preheader.i

.preheader.i:                                     ; preds = %1, %7
  %.08.i = phi ptr [ %8, %7 ], [ @ciphersuite_definitions, %1 ]
  %3 = getelementptr inbounds nuw i8, ptr %.08.i, i64 8
  %4 = load ptr, ptr %3, align 8, !tbaa !15
  %5 = tail call i32 @strcmp(ptr noundef nonnull dereferenceable(1) %4, ptr noundef nonnull readonly dereferenceable(1) %0) #7
  %6 = icmp eq i32 %5, 0
  br i1 %6, label %mbedtls_ssl_ciphersuite_from_string.exit, label %7

7:                                                ; preds = %.preheader.i
  %8 = getelementptr inbounds nuw i8, ptr %.08.i, i64 24
  %9 = load i32, ptr %8, align 8, !tbaa !3
  %.not.i = icmp eq i32 %9, 0
  br i1 %.not.i, label %mbedtls_ssl_ciphersuite_from_string.exit.thread, label %.preheader.i, !llvm.loop !16

mbedtls_ssl_ciphersuite_from_string.exit:         ; preds = %.preheader.i
  %10 = load i32, ptr %.08.i, align 8, !tbaa !3
  br label %mbedtls_ssl_ciphersuite_from_string.exit.thread

mbedtls_ssl_ciphersuite_from_string.exit.thread:  ; preds = %7, %1, %mbedtls_ssl_ciphersuite_from_string.exit
  %.0 = phi i32 [ %10, %mbedtls_ssl_ciphersuite_from_string.exit ], [ 0, %1 ], [ 0, %7 ]
  ret i32 %.0
}